target datalayout = "e-m:e-p270:32:32-p271:32:32-p272:64:64-i64:64-i128:128-f80:128-n8:16:32:64-S128"
target triple = "x86_64-pc-linux-gnu"

%union.pthread_mutex_t = type { %struct.__pthread_mutex_s }
%struct.__pthread_mutex_s = type { i32, i32, i32, i32, i32, i16, i16, %struct.__pthread_internal_list }
%struct.__pthread_internal_list = type { ptr, ptr }
%struct.___itt_global = type { [8 x i8], i64, i64, i64, i64, i64, i64, %union.pthread_mutex_t, ptr, ptr, ptr, ptr, ptr, ptr, ptr, ptr, i32, ptr, i32, ptr, ptr }

@__itt_model_site_begin_ptr__3_0 = hidden global ptr @__itt_model_site_begin_init_3_0, align 8
@__itt_init_ittlib_ptr = internal global ptr @__itt_init_ittlib, align 8

; Function Attrs: nounwind uwtable
define internal void @__itt_model_site_begin_init_3_0(ptr noundef %0, ptr noundef %1, ptr noundef %2) #0 {
  %4 = alloca ptr, align 8
  %5 = alloca ptr, align 8
  %6 = alloca ptr, align 8
  store ptr %0, ptr %4, align 8, !tbaa !26
  store ptr %1, ptr %5, align 8, !tbaa !26
  store ptr %2, ptr %6, align 8, !tbaa !22
  %7 = load volatile i64, ptr getelementptr inbounds nuw (%struct.___itt_global, ptr @__itt__ittapi_global, i32 0, i32 4), align 8, !tbaa !3
  %8 = icmp ne i64 %7, 0
  br i1 %8, label %15, label %9

9:                                                ; preds = %3
  %10 = load ptr, ptr getelementptr inbounds nuw (%struct.___itt_global, ptr @__itt__ittapi_global, i32 0, i32 13), align 8, !tbaa !20
  %11 = icmp eq ptr %10, null
  br i1 %11, label %12, label %15

12:                                               ; preds = %9
  %13 = load ptr, ptr @__itt_init_ittlib_ptr, align 8, !tbaa !21
  %14 = call i32 %13(ptr noundef null, i32 noundef -1)
  br label %15

15:                                               ; preds = %12, %9, %3
  %16 = load ptr, ptr @__itt_model_site_begin_ptr__3_0, align 8, !tbaa !21
  %17 = icmp ne ptr %16, null
  br i1 %17, label %18, label %26

18:                                               ; preds = %15
  %19 = load ptr, ptr @__itt_model_site_begin_ptr__3_0, align 8, !tbaa !21
  %20 = icmp ne ptr %19, @__itt_model_site_begin_init_3_0
  br i1 %20, label %21, label %26

21:                                               ; preds = %18
  %22 = load ptr, ptr @__itt_model_site_begin_ptr__3_0, align 8, !tbaa !21
  %23 = load ptr, ptr %4, align 8, !tbaa !26
  %24 = load ptr, ptr %5, align 8, !tbaa !26
  %25 = load ptr, ptr %6, align 8, !tbaa !22
  call void %22(ptr noundef %23, ptr noundef %24, ptr noundef %25)
  br label %27

26:                                               ; preds = %18, %15
  br label %27

27:                                               ; preds = %26, %21
  ret void
}