; Function Attrs: nounwind uwtable
define internal void @__itt_model_site_begin_init_3_0(ptr noundef %0, ptr noundef %1, ptr noundef %2) #0 {
  %4 = load volatile i64, ptr getelementptr inbounds nuw (i8, ptr @__itt__ittapi_global, i64 32), align 8, !tbaa !3
  %5 = icmp eq i64 %4, 0
  %6 = load ptr, ptr getelementptr inbounds nuw (i8, ptr @__itt__ittapi_global, i64 136), align 8
  %7 = icmp eq ptr %6, null
  %or.cond = select i1 %5, i1 %7, i1 false
  br i1 %or.cond, label %8, label %10

8:                                                ; preds = %3
  %9 = tail call i32 @__itt_init_ittlib(ptr noundef null, i32 noundef -1)
  br label %10

10:                                               ; preds = %8, %3
  %11 = load ptr, ptr @__itt_model_site_begin_ptr__3_0, align 8, !tbaa !20
  %12 = icmp ne ptr %11, null
  %13 = icmp ne ptr %11, @__itt_model_site_begin_init_3_0
  %or.cond3 = and i1 %12, %13
  br i1 %or.cond3, label %14, label %15

14:                                               ; preds = %10
  tail call void %11(ptr noundef %0, ptr noundef %1, ptr noundef %2) #14
  br label %15

15:                                               ; preds = %10, %14
  ret void
}